target datalayout = "e-m:e-p270:32:32-p271:32:32-p272:64:64-i64:64-i128:128-f80:128-n8:16:32:64-S128"
target triple = "x86_64-pc-linux-gnu"

%struct._Node = type { %union.anon.2 }
%union.anon.2 = type { %struct.BagNode }
%struct.BagNode = type { i32, i32, ptr, ptr, i32, %union.anon.4, i32, i32, i32, i32, i32 }
%union.anon.4 = type { %struct.anon.7 }
%struct.anon.7 = type { ptr, ptr }
%struct.anon.3 = type { i32, i32, ptr, ptr }
%struct.StrNode = type { i32, i32, ptr, ptr, ptr, i32, [24 x i8], i32 }

; Function Attrs: nounwind uwtable
define internal ptr @strcat_capa(ptr noundef %0, ptr noundef %1, ptr noundef %2, ptr noundef %3, i32 noundef %4) #0 {
  %6 = alloca ptr, align 8
  %7 = alloca ptr, align 8
  %8 = alloca ptr, align 8
  %9 = alloca ptr, align 8
  %10 = alloca ptr, align 8
  %11 = alloca i32, align 4
  %12 = alloca ptr, align 8
  %13 = alloca i64, align 8
  %14 = alloca i32, align 4
  store ptr %0, ptr %7, align 8, !tbaa !4
  store ptr %1, ptr %8, align 8, !tbaa !4
  store ptr %2, ptr %9, align 8, !tbaa !4
  store ptr %3, ptr %10, align 8, !tbaa !4
  store i32 %4, ptr %11, align 4, !tbaa !10
  call void @llvm.lifetime.start.p0(i64 8, ptr %12) #8
  call void @llvm.lifetime.start.p0(i64 8, ptr %13) #8
  %15 = load ptr, ptr %8, align 8, !tbaa !4
  %16 = load ptr, ptr %7, align 8, !tbaa !4
  %17 = ptrtoint ptr %15 to i64
  %18 = ptrtoint ptr %16 to i64
  %19 = sub i64 %17, %18
  store i64 %19, ptr %13, align 8, !tbaa !15
  %20 = load ptr, ptr %7, align 8, !tbaa !4
  %21 = icmp ne ptr %20, null
  br i1 %21, label %22, label %28

22:                                               ; preds = %5
  %23 = load ptr, ptr %7, align 8, !tbaa !4
  %24 = load i32, ptr %11, align 4, !tbaa !10
  %25 = add nsw i32 %24, 1
  %26 = sext i32 %25 to i64
  %27 = call ptr @realloc(ptr noundef %23, i64 noundef %26) #10
  store ptr %27, ptr %12, align 8, !tbaa !4
  br label %33

28:                                               ; preds = %5
  %29 = load i32, ptr %11, align 4, !tbaa !10
  %30 = add nsw i32 %29, 1
  %31 = sext i32 %30 to i64
  %32 = call noalias ptr @malloc(i64 noundef %31) #9
  store ptr %32, ptr %12, align 8, !tbaa !4
  br label %33

33:                                               ; preds = %28, %22
  %34 = load ptr, ptr %12, align 8, !tbaa !4
  %35 = icmp eq ptr %34, null
  br i1 %35, label %36, label %37

36:                                               ; preds = %33
  store ptr null, ptr %6, align 8
  store i32 1, ptr %14, align 4
  br label %44

37:                                               ; preds = %33
  %38 = load ptr, ptr %12, align 8, !tbaa !4
  %39 = load i64, ptr %13, align 8, !tbaa !15
  %40 = getelementptr inbounds i8, ptr %38, i64 %39
  %41 = load ptr, ptr %9, align 8, !tbaa !4
  %42 = load ptr, ptr %10, align 8, !tbaa !4
  call void @onig_strcpy(ptr noundef %40, ptr noundef %41, ptr noundef %42)
  %43 = load ptr, ptr %12, align 8, !tbaa !4
  store ptr %43, ptr %6, align 8
  store i32 1, ptr %14, align 4
  br label %44

44:                                               ; preds = %37, %36
  call void @llvm.lifetime.end.p0(i64 8, ptr %13) #8
  call void @llvm.lifetime.end.p0(i64 8, ptr %12) #8
  %45 = load ptr, ptr %6, align 8
  ret ptr %45
}

; Function Attrs: nounwind uwtable
define internal ptr @strcat_capa_from_static(ptr noundef %0, ptr noundef %1, ptr noundef %2, ptr noundef %3, i32 noundef %4) #0 {
  %6 = alloca ptr, align 8
  %7 = alloca ptr, align 8
  %8 = alloca ptr, align 8
  %9 = alloca ptr, align 8
  %10 = alloca ptr, align 8
  %11 = alloca i32, align 4
  %12 = alloca ptr, align 8
  %13 = alloca i32, align 4
  store ptr %0, ptr %7, align 8, !tbaa !4
  store ptr %1, ptr %8, align 8, !tbaa !4
  store ptr %2, ptr %9, align 8, !tbaa !4
  store ptr %3, ptr %10, align 8, !tbaa !4
  store i32 %4, ptr %11, align 4, !tbaa !10
  call void @llvm.lifetime.start.p0(i64 8, ptr %12) #8
  %14 = load i32, ptr %11, align 4, !tbaa !10
  %15 = add nsw i32 %14, 1
  %16 = sext i32 %15 to i64
  %17 = call noalias ptr @malloc(i64 noundef %16) #9
  store ptr %17, ptr %12, align 8, !tbaa !4
  %18 = load ptr, ptr %12, align 8, !tbaa !4
  %19 = icmp eq ptr %18, null
  br i1 %19, label %20, label %21

20:                                               ; preds = %5
  store ptr null, ptr %6, align 8
  store i32 1, ptr %13, align 4
  br label %35

21:                                               ; preds = %5
  %22 = load ptr, ptr %12, align 8, !tbaa !4
  %23 = load ptr, ptr %7, align 8, !tbaa !4
  %24 = load ptr, ptr %8, align 8, !tbaa !4
  call void @onig_strcpy(ptr noundef %22, ptr noundef %23, ptr noundef %24)
  %25 = load ptr, ptr %12, align 8, !tbaa !4
  %26 = load ptr, ptr %8, align 8, !tbaa !4
  %27 = load ptr, ptr %7, align 8, !tbaa !4
  %28 = ptrtoint ptr %26 to i64
  %29 = ptrtoint ptr %27 to i64
  %30 = sub i64 %28, %29
  %31 = getelementptr inbounds i8, ptr %25, i64 %30
  %32 = load ptr, ptr %9, align 8, !tbaa !4
  %33 = load ptr, ptr %10, align 8, !tbaa !4
  call void @onig_strcpy(ptr noundef %31, ptr noundef %32, ptr noundef %33)
  %34 = load ptr, ptr %12, align 8, !tbaa !4
  store ptr %34, ptr %6, align 8
  store i32 1, ptr %13, align 4
  br label %35

35:                                               ; preds = %21, %20
  call void @llvm.lifetime.end.p0(i64 8, ptr %12) #8
  %36 = load ptr, ptr %6, align 8
  ret ptr %36
}

; Function Attrs: nounwind uwtable
define dso_local void @onig_strcpy(ptr noundef %0, ptr noundef %1, ptr noundef %2) #0 {
  %4 = alloca ptr, align 8
  %5 = alloca ptr, align 8
  %6 = alloca ptr, align 8
  %7 = alloca i32, align 4
  store ptr %0, ptr %4, align 8, !tbaa !4
  store ptr %1, ptr %5, align 8, !tbaa !4
  store ptr %2, ptr %6, align 8, !tbaa !4
  call void @llvm.lifetime.start.p0(i64 4, ptr %7) #8
  %8 = load ptr, ptr %6, align 8, !tbaa !4
  %9 = load ptr, ptr %5, align 8, !tbaa !4
  %10 = ptrtoint ptr %8 to i64
  %11 = ptrtoint ptr %9 to i64
  %12 = sub i64 %10, %11
  %13 = trunc i64 %12 to i32
  store i32 %13, ptr %7, align 4, !tbaa !10
  %14 = load i32, ptr %7, align 4, !tbaa !10
  %15 = icmp sgt i32 %14, 0
  br i1 %15, label %16, label %25

16:                                               ; preds = %3
  %17 = load ptr, ptr %4, align 8, !tbaa !4
  %18 = load ptr, ptr %5, align 8, !tbaa !4
  %19 = load i32, ptr %7, align 4, !tbaa !10
  %20 = sext i32 %19 to i64
  call void @llvm.memcpy.p0.p0.i64(ptr align 1 %17, ptr align 1 %18, i64 %20, i1 false)
  %21 = load ptr, ptr %4, align 8, !tbaa !4
  %22 = load i32, ptr %7, align 4, !tbaa !10
  %23 = sext i32 %22 to i64
  %24 = getelementptr inbounds i8, ptr %21, i64 %23
  store i8 0, ptr %24, align 1, !tbaa !12
  br label %25

25:                                               ; preds = %16, %3
  call void @llvm.lifetime.end.p0(i64 4, ptr %7) #8
  ret void
}

; Function Attrs: nounwind uwtable
define dso_local i32 @onig_node_str_cat(ptr noundef %0, ptr noundef %1, ptr noundef %2) #0 {
  %4 = alloca i32, align 4
  %5 = alloca ptr, align 8
  %6 = alloca ptr, align 8
  %7 = alloca ptr, align 8
  %8 = alloca i32, align 4
  %9 = alloca i32, align 4
  %10 = alloca ptr, align 8
  %11 = alloca i32, align 4
  %12 = alloca i32, align 4
  store ptr %0, ptr %5, align 8, !tbaa !111
  store ptr %1, ptr %6, align 8, !tbaa !4
  store ptr %2, ptr %7, align 8, !tbaa !4
  call void @llvm.lifetime.start.p0(i64 4, ptr %8) #8
  %13 = load ptr, ptr %7, align 8, !tbaa !4
  %14 = load ptr, ptr %6, align 8, !tbaa !4
  %15 = ptrtoint ptr %13 to i64
  %16 = ptrtoint ptr %14 to i64
  %17 = sub i64 %15, %16
  %18 = trunc i64 %17 to i32
  store i32 %18, ptr %8, align 4, !tbaa !10
  %19 = load i32, ptr %8, align 4, !tbaa !10
  %20 = icmp sgt i32 %19, 0
  br i1 %20, label %21, label %145

21:                                               ; preds = %3
  call void @llvm.lifetime.start.p0(i64 4, ptr %9) #8
  %22 = load ptr, ptr %5, align 8, !tbaa !111
  %23 = getelementptr inbounds nuw %struct._Node, ptr %22, i32 0, i32 0
  %24 = getelementptr inbounds nuw %struct.StrNode, ptr %23, i32 0, i32 4
  %25 = load ptr, ptr %24, align 8, !tbaa !12
  %26 = load ptr, ptr %5, align 8, !tbaa !111
  %27 = getelementptr inbounds nuw %struct._Node, ptr %26, i32 0, i32 0
  %28 = getelementptr inbounds nuw %struct.StrNode, ptr %27, i32 0, i32 3
  %29 = load ptr, ptr %28, align 8, !tbaa !12
  %30 = ptrtoint ptr %25 to i64
  %31 = ptrtoint ptr %29 to i64
  %32 = sub i64 %30, %31
  %33 = trunc i64 %32 to i32
  store i32 %33, ptr %9, align 4, !tbaa !10
  %34 = load ptr, ptr %5, align 8, !tbaa !111
  %35 = getelementptr inbounds nuw %struct._Node, ptr %34, i32 0, i32 0
  %36 = getelementptr inbounds nuw %struct.StrNode, ptr %35, i32 0, i32 7
  %37 = load i32, ptr %36, align 4, !tbaa !12
  %38 = icmp sgt i32 %37, 0
  br i1 %38, label %44, label %39

39:                                               ; preds = %21
  %40 = load i32, ptr %9, align 4, !tbaa !10
  %41 = load i32, ptr %8, align 4, !tbaa !10
  %42 = add nsw i32 %40, %41
  %43 = icmp sgt i32 %42, 23
  br i1 %43, label %44, label %118

44:                                               ; preds = %39, %21
  call void @llvm.lifetime.start.p0(i64 8, ptr %10) #8
  call void @llvm.lifetime.start.p0(i64 4, ptr %11) #8
  %45 = load i32, ptr %9, align 4, !tbaa !10
  %46 = load i32, ptr %8, align 4, !tbaa !10
  %47 = add nsw i32 %45, %46
  %48 = add nsw i32 %47, 16
  store i32 %48, ptr %11, align 4, !tbaa !10
  %49 = load i32, ptr %11, align 4, !tbaa !10
  %50 = load ptr, ptr %5, align 8, !tbaa !111
  %51 = getelementptr inbounds nuw %struct._Node, ptr %50, i32 0, i32 0
  %52 = getelementptr inbounds nuw %struct.StrNode, ptr %51, i32 0, i32 7
  %53 = load i32, ptr %52, align 4, !tbaa !12
  %54 = icmp sle i32 %49, %53
  br i1 %54, label %55, label %65

55:                                               ; preds = %44
  %56 = load ptr, ptr %5, align 8, !tbaa !111
  %57 = getelementptr inbounds nuw %struct._Node, ptr %56, i32 0, i32 0
  %58 = getelementptr inbounds nuw %struct.StrNode, ptr %57, i32 0, i32 3
  %59 = load ptr, ptr %58, align 8, !tbaa !12
  %60 = load i32, ptr %9, align 4, !tbaa !10
  %61 = sext i32 %60 to i64
  %62 = getelementptr inbounds i8, ptr %59, i64 %61
  %63 = load ptr, ptr %6, align 8, !tbaa !4
  %64 = load ptr, ptr %7, align 8, !tbaa !4
  call void @onig_strcpy(ptr noundef %62, ptr noundef %63, ptr noundef %64)
  br label %114

65:                                               ; preds = %44
  %66 = load ptr, ptr %5, align 8, !tbaa !111
  %67 = getelementptr inbounds nuw %struct._Node, ptr %66, i32 0, i32 0
  %68 = getelementptr inbounds nuw %struct.StrNode, ptr %67, i32 0, i32 3
  %69 = load ptr, ptr %68, align 8, !tbaa !12
  %70 = load ptr, ptr %5, align 8, !tbaa !111
  %71 = getelementptr inbounds nuw %struct._Node, ptr %70, i32 0, i32 0
  %72 = getelementptr inbounds nuw %struct.StrNode, ptr %71, i32 0, i32 6
  %73 = getelementptr inbounds [24 x i8], ptr %72, i64 0, i64 0
  %74 = icmp eq ptr %69, %73
  br i1 %74, label %75, label %88

75:                                               ; preds = %65
  %76 = load ptr, ptr %5, align 8, !tbaa !111
  %77 = getelementptr inbounds nuw %struct._Node, ptr %76, i32 0, i32 0
  %78 = getelementptr inbounds nuw %struct.StrNode, ptr %77, i32 0, i32 3
  %79 = load ptr, ptr %78, align 8, !tbaa !12
  %80 = load ptr, ptr %5, align 8, !tbaa !111
  %81 = getelementptr inbounds nuw %struct._Node, ptr %80, i32 0, i32 0
  %82 = getelementptr inbounds nuw %struct.StrNode, ptr %81, i32 0, i32 4
  %83 = load ptr, ptr %82, align 8, !tbaa !12
  %84 = load ptr, ptr %6, align 8, !tbaa !4
  %85 = load ptr, ptr %7, align 8, !tbaa !4
  %86 = load i32, ptr %11, align 4, !tbaa !10
  %87 = call ptr @strcat_capa_from_static(ptr noundef %79, ptr noundef %83, ptr noundef %84, ptr noundef %85, i32 noundef %86)
  store ptr %87, ptr %10, align 8, !tbaa !4
  br label %101

88:                                               ; preds = %65
  %89 = load ptr, ptr %5, align 8, !tbaa !111
  %90 = getelementptr inbounds nuw %struct._Node, ptr %89, i32 0, i32 0
  %91 = getelementptr inbounds nuw %struct.StrNode, ptr %90, i32 0, i32 3
  %92 = load ptr, ptr %91, align 8, !tbaa !12
  %93 = load ptr, ptr %5, align 8, !tbaa !111
  %94 = getelementptr inbounds nuw %struct._Node, ptr %93, i32 0, i32 0
  %95 = getelementptr inbounds nuw %struct.StrNode, ptr %94, i32 0, i32 4
  %96 = load ptr, ptr %95, align 8, !tbaa !12
  %97 = load ptr, ptr %6, align 8, !tbaa !4
  %98 = load ptr, ptr %7, align 8, !tbaa !4
  %99 = load i32, ptr %11, align 4, !tbaa !10
  %100 = call ptr @strcat_capa(ptr noundef %92, ptr noundef %96, ptr noundef %97, ptr noundef %98, i32 noundef %99)
  store ptr %100, ptr %10, align 8, !tbaa !4
  br label %101

101:                                              ; preds = %88, %75
  %102 = load ptr, ptr %10, align 8, !tbaa !4
  %103 = icmp eq ptr %102, null
  br i1 %103, label %104, label %105

104:                                              ; preds = %101
  store i32 -5, ptr %4, align 4
  store i32 1, ptr %12, align 4
  br label %115

105:                                              ; preds = %101
  %106 = load ptr, ptr %10, align 8, !tbaa !4
  %107 = load ptr, ptr %5, align 8, !tbaa !111
  %108 = getelementptr inbounds nuw %struct._Node, ptr %107, i32 0, i32 0
  %109 = getelementptr inbounds nuw %struct.StrNode, ptr %108, i32 0, i32 3
  store ptr %106, ptr %109, align 8, !tbaa !12
  %110 = load i32, ptr %11, align 4, !tbaa !10
  %111 = load ptr, ptr %5, align 8, !tbaa !111
  %112 = getelementptr inbounds nuw %struct._Node, ptr %111, i32 0, i32 0
  %113 = getelementptr inbounds nuw %struct.StrNode, ptr %112, i32 0, i32 7
  store i32 %110, ptr %113, align 4, !tbaa !12
  br label %114

114:                                              ; preds = %105, %55
  store i32 0, ptr %12, align 4
  br label %115

115:                                              ; preds = %114, %104
  call void @llvm.lifetime.end.p0(i64 4, ptr %11) #8
  call void @llvm.lifetime.end.p0(i64 8, ptr %10) #8
  %116 = load i32, ptr %12, align 4
  switch i32 %116, label %142 [
    i32 0, label %117
  ]

117:                                              ; preds = %115
  br label %128

118:                                              ; preds = %39
  %119 = load ptr, ptr %5, align 8, !tbaa !111
  %120 = getelementptr inbounds nuw %struct._Node, ptr %119, i32 0, i32 0
  %121 = getelementptr inbounds nuw %struct.StrNode, ptr %120, i32 0, i32 3
  %122 = load ptr, ptr %121, align 8, !tbaa !12
  %123 = load i32, ptr %9, align 4, !tbaa !10
  %124 = sext i32 %123 to i64
  %125 = getelementptr inbounds i8, ptr %122, i64 %124
  %126 = load ptr, ptr %6, align 8, !tbaa !4
  %127 = load ptr, ptr %7, align 8, !tbaa !4
  call void @onig_strcpy(ptr noundef %125, ptr noundef %126, ptr noundef %127)
  br label %128

128:                                              ; preds = %118, %117
  %129 = load ptr, ptr %5, align 8, !tbaa !111
  %130 = getelementptr inbounds nuw %struct._Node, ptr %129, i32 0, i32 0
  %131 = getelementptr inbounds nuw %struct.StrNode, ptr %130, i32 0, i32 3
  %132 = load ptr, ptr %131, align 8, !tbaa !12
  %133 = load i32, ptr %9, align 4, !tbaa !10
  %134 = sext i32 %133 to i64
  %135 = getelementptr inbounds i8, ptr %132, i64 %134
  %136 = load i32, ptr %8, align 4, !tbaa !10
  %137 = sext i32 %136 to i64
  %138 = getelementptr inbounds i8, ptr %135, i64 %137
  %139 = load ptr, ptr %5, align 8, !tbaa !111
  %140 = getelementptr inbounds nuw %struct._Node, ptr %139, i32 0, i32 0
  %141 = getelementptr inbounds nuw %struct.StrNode, ptr %140, i32 0, i32 4
  store ptr %138, ptr %141, align 8, !tbaa !12
  store i32 0, ptr %12, align 4
  br label %142

142:                                              ; preds = %128, %115
  call void @llvm.lifetime.end.p0(i64 4, ptr %9) #8
  %143 = load i32, ptr %12, align 4
  switch i32 %143, label %146 [
    i32 0, label %144
  ]

144:                                              ; preds = %142
  br label %145

145:                                              ; preds = %144, %3
  store i32 0, ptr %4, align 4
  store i32 1, ptr %12, align 4
  br label %146

146:                                              ; preds = %145, %142
  call void @llvm.lifetime.end.p0(i64 4, ptr %8) #8
  %147 = load i32, ptr %4, align 4
  ret i32 %147
}

; Function Attrs: nounwind uwtable
define internal i32 @node_set_str(ptr noundef %0, ptr noundef %1, ptr noundef %2) #0 {
  %4 = alloca ptr, align 8
  %5 = alloca ptr, align 8
  %6 = alloca ptr, align 8
  %7 = alloca i32, align 4
  store ptr %0, ptr %4, align 8, !tbaa !111
  store ptr %1, ptr %5, align 8, !tbaa !4
  store ptr %2, ptr %6, align 8, !tbaa !4
  call void @llvm.lifetime.start.p0(i64 4, ptr %7) #8
  %8 = load ptr, ptr %4, align 8, !tbaa !111
  %9 = getelementptr inbounds nuw %struct._Node, ptr %8, i32 0, i32 0
  %10 = getelementptr inbounds nuw %struct.anon.3, ptr %9, i32 0, i32 0
  store i32 0, ptr %10, align 8, !tbaa !12
  %11 = load ptr, ptr %4, align 8, !tbaa !111
  %12 = getelementptr inbounds nuw %struct._Node, ptr %11, i32 0, i32 0
  %13 = getelementptr inbounds nuw %struct.StrNode, ptr %12, i32 0, i32 5
  store i32 0, ptr %13, align 8, !tbaa !12
  %14 = load ptr, ptr %4, align 8, !tbaa !111
  %15 = getelementptr inbounds nuw %struct._Node, ptr %14, i32 0, i32 0
  %16 = getelementptr inbounds nuw %struct.StrNode, ptr %15, i32 0, i32 6
  %17 = getelementptr inbounds [24 x i8], ptr %16, i64 0, i64 0
  %18 = load ptr, ptr %4, align 8, !tbaa !111
  %19 = getelementptr inbounds nuw %struct._Node, ptr %18, i32 0, i32 0
  %20 = getelementptr inbounds nuw %struct.StrNode, ptr %19, i32 0, i32 3
  store ptr %17, ptr %20, align 8, !tbaa !12
  %21 = load ptr, ptr %4, align 8, !tbaa !111
  %22 = getelementptr inbounds nuw %struct._Node, ptr %21, i32 0, i32 0
  %23 = getelementptr inbounds nuw %struct.StrNode, ptr %22, i32 0, i32 6
  %24 = getelementptr inbounds [24 x i8], ptr %23, i64 0, i64 0
  %25 = load ptr, ptr %4, align 8, !tbaa !111
  %26 = getelementptr inbounds nuw %struct._Node, ptr %25, i32 0, i32 0
  %27 = getelementptr inbounds nuw %struct.StrNode, ptr %26, i32 0, i32 4
  store ptr %24, ptr %27, align 8, !tbaa !12
  %28 = load ptr, ptr %4, align 8, !tbaa !111
  %29 = getelementptr inbounds nuw %struct._Node, ptr %28, i32 0, i32 0
  %30 = getelementptr inbounds nuw %struct.StrNode, ptr %29, i32 0, i32 7
  store i32 0, ptr %30, align 4, !tbaa !12
  %31 = load ptr, ptr %4, align 8, !tbaa !111
  %32 = load ptr, ptr %5, align 8, !tbaa !4
  %33 = load ptr, ptr %6, align 8, !tbaa !4
  %34 = call i32 @onig_node_str_cat(ptr noundef %31, ptr noundef %32, ptr noundef %33)
  store i32 %34, ptr %7, align 4, !tbaa !10
  %35 = load i32, ptr %7, align 4, !tbaa !10
  call void @llvm.lifetime.end.p0(i64 4, ptr %7) #8
  ret i32 %35
}

; Function Attrs: nounwind uwtable
define internal i32 @node_reset_str(ptr noundef %0, ptr noundef %1, ptr noundef %2) #0 {
  %4 = alloca ptr, align 8
  %5 = alloca ptr, align 8
  %6 = alloca ptr, align 8
  store ptr %0, ptr %4, align 8, !tbaa !111
  store ptr %1, ptr %5, align 8, !tbaa !4
  store ptr %2, ptr %6, align 8, !tbaa !4
  %7 = load ptr, ptr %4, align 8, !tbaa !111
  call void @node_free_body(ptr noundef %7)
  %8 = load ptr, ptr %4, align 8, !tbaa !111
  %9 = load ptr, ptr %5, align 8, !tbaa !4
  %10 = load ptr, ptr %6, align 8, !tbaa !4
  %11 = call i32 @node_set_str(ptr noundef %8, ptr noundef %9, ptr noundef %10)
  ret i32 %11
}

; Function Attrs: nounwind uwtable
define dso_local i32 @onig_node_reset_empty(ptr noundef %0) #0 {
  %2 = alloca ptr, align 8
  store ptr %0, ptr %2, align 8, !tbaa !111
  %3 = load ptr, ptr %2, align 8, !tbaa !111
  %4 = call i32 @node_reset_str(ptr noundef %3, ptr noundef null, ptr noundef null)
  ret i32 %4
}