; Function Attrs: nounwind uwtable
define dso_local noundef range(i32 -5, 1) i32 @onig_node_reset_empty(ptr noundef %0) local_unnamed_addr #2 {
  tail call fastcc void @node_free_body(ptr noundef %0)
  store i32 0, ptr %0, align 8, !tbaa !10
  %2 = getelementptr inbounds nuw i8, ptr %0, i64 32
  store i32 0, ptr %2, align 8, !tbaa !10
  %3 = getelementptr inbounds nuw i8, ptr %0, i64 36
  %4 = getelementptr inbounds nuw i8, ptr %0, i64 16
  store ptr %3, ptr %4, align 8, !tbaa !10
  %5 = getelementptr inbounds nuw i8, ptr %0, i64 24
  store ptr %3, ptr %5, align 8, !tbaa !10
  %6 = getelementptr inbounds nuw i8, ptr %0, i64 60
  store i32 0, ptr %6, align 4, !tbaa !10
  ret i32 0
}